target datalayout = "e-m:e-p270:32:32-p271:32:32-p272:64:64-i64:64-i128:128-f80:128-n8:16:32:64-S128"
target triple = "x86_64-pc-linux-gnu"

%"class.JvmtiRawMonitor::QNode" = type { ptr, ptr, ptr, i32, i32 }
%class.JvmtiRawMonitor = type { ptr, i32, ptr, ptr, i32, ptr }

@RawMonitor_lock = external global ptr, align 8
@g_assert_poison = external global ptr, align 8
@.str = private unnamed_addr constant [44 x i8] c"src/hotspot/share/prims/jvmtiRawMonitor.cpp\00", align 1
@.str.5 = private unnamed_addr constant [33 x i8] c"guarantee(_owner == self) failed\00", align 1
@.str.6 = private unnamed_addr constant [10 x i8] c"invariant\00", align 1

; Function Attrs: mustprogress nounwind uwtable
define linkonce_odr hidden void @_ZN11OrderAccess5fenceEv() #1 comdat align 2 {
  call void asm sideeffect "lock; addl $$0,0(%rsp)", "~{cc},~{memory},~{dirflag},~{fpsr},~{flags}"() #7, !srcloc !11
  call void @_ZL16compiler_barrierv()
  ret void
}

; Function Attrs: mustprogress nounwind uwtable
define internal void @_ZL16compiler_barrierv() #1 {
  call void asm sideeffect "", "~{memory},~{dirflag},~{fpsr},~{flags}"() #7, !srcloc !15
  ret void
}

; Function Attrs: mustprogress nounwind uwtable
define linkonce_odr hidden void @_ZN11OrderAccess9storeloadEv() #1 comdat align 2 {
  call void @_ZN11OrderAccess5fenceEv()
  ret void
}

; Function Attrs: mustprogress nounwind uwtable
define linkonce_odr hidden void @_ZN11OrderAccess9loadstoreEv() #1 comdat align 2 {
  call void @_ZL16compiler_barrierv()
  ret void
}

; Function Attrs: mustprogress nounwind uwtable
define hidden void @_ZN15JvmtiRawMonitor13simple_notifyEP6Threadb(ptr noundef nonnull align 8 dereferenceable(48) %0, ptr noundef %1, i1 noundef zeroext %2) #1 align 2 {
  %4 = alloca ptr, align 8
  %5 = alloca ptr, align 8
  %6 = alloca i8, align 1
  %7 = alloca ptr, align 8
  %8 = alloca ptr, align 8
  store ptr %0, ptr %4, align 8
  store ptr %1, ptr %5, align 8
  %9 = zext i1 %2 to i8
  store i8 %9, ptr %6, align 1
  %10 = load ptr, ptr %4, align 8
  br label %11

11:                                               ; preds = %3
  %12 = getelementptr inbounds %class.JvmtiRawMonitor, ptr %10, i32 0, i32 0
  %13 = load volatile ptr, ptr %12, align 8
  %14 = load ptr, ptr %5, align 8
  %15 = icmp eq ptr %13, %14
  br i1 %15, label %18, label %16

16:                                               ; preds = %11
  %17 = load ptr, ptr @g_assert_poison, align 8
  store i8 88, ptr %17, align 1
  call void (ptr, i32, ptr, ptr, ...) @_Z15report_vm_errorPKciS0_S0_z(ptr noundef @.str, i32 noundef 283, ptr noundef @.str.5, ptr noundef @.str.6) #8
  unreachable

18:                                               ; preds = %11
  br label %19

19:                                               ; preds = %18
  %20 = getelementptr inbounds %class.JvmtiRawMonitor, ptr %10, i32 0, i32 3
  %21 = load volatile ptr, ptr %20, align 8
  %22 = icmp eq ptr %21, null
  br i1 %22, label %23, label %24

23:                                               ; preds = %19
  br label %58

24:                                               ; preds = %19
  store ptr null, ptr %7, align 8
  %25 = load ptr, ptr @RawMonitor_lock, align 8
  call void @_ZN5Mutex28lock_without_safepoint_checkEv(ptr noundef nonnull align 8 dereferenceable(104) %25)
  br label %26

26:                                               ; preds = %50, %24
  %27 = getelementptr inbounds %class.JvmtiRawMonitor, ptr %10, i32 0, i32 3
  %28 = load volatile ptr, ptr %27, align 8
  store ptr %28, ptr %8, align 8
  %29 = load ptr, ptr %8, align 8
  %30 = icmp eq ptr %29, null
  br i1 %30, label %31, label %32

31:                                               ; preds = %26
  br label %51

32:                                               ; preds = %26
  %33 = load ptr, ptr %8, align 8
  %34 = getelementptr inbounds %"class.JvmtiRawMonitor::QNode", ptr %33, i32 0, i32 0
  %35 = load volatile ptr, ptr %34, align 8
  %36 = getelementptr inbounds %class.JvmtiRawMonitor, ptr %10, i32 0, i32 3
  store volatile ptr %35, ptr %36, align 8
  %37 = load ptr, ptr %7, align 8
  %38 = icmp ne ptr %37, null
  br i1 %38, label %39, label %41

39:                                               ; preds = %32
  %40 = load ptr, ptr %7, align 8
  call void @_ZN13PlatformEvent6unparkEv(ptr noundef nonnull align 8 dereferenceable(144) %40)
  store ptr null, ptr %7, align 8
  br label %41

41:                                               ; preds = %39, %32
  %42 = load ptr, ptr %8, align 8
  %43 = getelementptr inbounds %"class.JvmtiRawMonitor::QNode", ptr %42, i32 0, i32 2
  %44 = load ptr, ptr %43, align 8
  store ptr %44, ptr %7, align 8
  call void @_ZN11OrderAccess9loadstoreEv()
  %45 = load ptr, ptr %8, align 8
  %46 = getelementptr inbounds %"class.JvmtiRawMonitor::QNode", ptr %45, i32 0, i32 4
  store volatile i32 1, ptr %46, align 4
  call void @_ZN11OrderAccess9storeloadEv()
  %47 = load i8, ptr %6, align 1
  %48 = trunc i8 %47 to i1
  br i1 %48, label %50, label %49

49:                                               ; preds = %41
  br label %51

50:                                               ; preds = %41
  br label %26, !llvm.loop !13

51:                                               ; preds = %49, %31
  %52 = load ptr, ptr @RawMonitor_lock, align 8
  call void @_ZN5Mutex6unlockEv(ptr noundef nonnull align 8 dereferenceable(104) %52)
  %53 = load ptr, ptr %7, align 8
  %54 = icmp ne ptr %53, null
  br i1 %54, label %55, label %57

55:                                               ; preds = %51
  %56 = load ptr, ptr %7, align 8
  call void @_ZN13PlatformEvent6unparkEv(ptr noundef nonnull align 8 dereferenceable(144) %56)
  br label %57

57:                                               ; preds = %55, %51
  br label %58

58:                                               ; preds = %57, %23
  ret void
}