; Function Attrs: mustprogress nounwind uwtable
define hidden void @_ZN15JvmtiRawMonitor13simple_notifyEP6Threadb(ptr noundef nonnull align 8 dereferenceable(48) %0, ptr noundef readnone %1, i1 noundef zeroext %2) local_unnamed_addr #2 align 2 {
  %4 = load volatile ptr, ptr %0, align 8
  %5 = icmp eq ptr %4, %1
  br i1 %5, label %8, label %6

6:                                                ; preds = %3
  %7 = load ptr, ptr @g_assert_poison, align 8
  store i8 88, ptr %7, align 1
  tail call void (ptr, i32, ptr, ptr, ...) @_Z15report_vm_errorPKciS0_S0_z(ptr noundef nonnull @.str, i32 noundef 283, ptr noundef nonnull @.str.5, ptr noundef nonnull @.str.6) #10
  unreachable

8:                                                ; preds = %3
  %9 = getelementptr inbounds i8, ptr %0, i64 24
  %10 = load volatile ptr, ptr %9, align 8
  %11 = icmp eq ptr %10, null
  br i1 %11, label %33, label %12

12:                                               ; preds = %8
  %13 = load ptr, ptr @RawMonitor_lock, align 8
  tail call void @_ZN5Mutex28lock_without_safepoint_checkEv(ptr noundef nonnull align 8 dereferenceable(104) %13) #9
  %14 = load volatile ptr, ptr %9, align 8
  %15 = icmp eq ptr %14, null
  br i1 %2, label %.split.us, label %.split, !llvm.loop !15

.split.us:                                        ; preds = %12
  br i1 %15, label %.split13.us.thread, label %.lr.ph

.lr.ph:                                           ; preds = %.split.us, %19
  %16 = phi ptr [ %23, %19 ], [ %14, %.split.us ]
  %.0.us14 = phi ptr [ %21, %19 ], [ null, %.split.us ]
  %17 = load volatile ptr, ptr %16, align 8
  store volatile ptr %17, ptr %9, align 8
  %.not.us = icmp eq ptr %.0.us14, null
  br i1 %.not.us, label %19, label %18

18:                                               ; preds = %.lr.ph
  tail call void @_ZN13PlatformEvent6unparkEv(ptr noundef nonnull align 8 dereferenceable(144) %.0.us14) #9
  br label %19

19:                                               ; preds = %18, %.lr.ph
  %20 = getelementptr inbounds i8, ptr %16, i64 16
  %21 = load ptr, ptr %20, align 8
  tail call void asm sideeffect "", "~{memory},~{dirflag},~{fpsr},~{flags}"() #9, !srcloc !6
  %22 = getelementptr inbounds i8, ptr %16, i64 28
  store volatile i32 1, ptr %22, align 4
  tail call void asm sideeffect "lock; addl $$0,0(%rsp)", "~{cc},~{memory},~{dirflag},~{fpsr},~{flags}"() #9, !srcloc !9
  tail call void asm sideeffect "", "~{memory},~{dirflag},~{fpsr},~{flags}"() #9, !srcloc !6
  %23 = load volatile ptr, ptr %9, align 8
  %24 = icmp eq ptr %23, null
  br i1 %24, label %.split13.us, label %.lr.ph

.split:                                           ; preds = %12
  br i1 %15, label %.split13.us.thread, label %25

25:                                               ; preds = %.split
  %26 = load volatile ptr, ptr %14, align 8
  store volatile ptr %26, ptr %9, align 8
  %27 = getelementptr inbounds i8, ptr %14, i64 16
  %28 = load ptr, ptr %27, align 8
  tail call void asm sideeffect "", "~{memory},~{dirflag},~{fpsr},~{flags}"() #9, !srcloc !6
  %29 = getelementptr inbounds i8, ptr %14, i64 28
  store volatile i32 1, ptr %29, align 4
  tail call void asm sideeffect "lock; addl $$0,0(%rsp)", "~{cc},~{memory},~{dirflag},~{fpsr},~{flags}"() #9, !srcloc !9
  tail call void asm sideeffect "", "~{memory},~{dirflag},~{fpsr},~{flags}"() #9, !srcloc !6
  br label %.split13.us

.split13.us.thread:                               ; preds = %.split.us, %.split
  %30 = load ptr, ptr @RawMonitor_lock, align 8
  tail call void @_ZN5Mutex6unlockEv(ptr noundef nonnull align 8 dereferenceable(104) %30) #9
  br label %33

.split13.us:                                      ; preds = %19, %25
  %.us-phi = phi ptr [ %28, %25 ], [ %21, %19 ]
  %31 = load ptr, ptr @RawMonitor_lock, align 8
  tail call void @_ZN5Mutex6unlockEv(ptr noundef nonnull align 8 dereferenceable(104) %31) #9
  %.not11 = icmp eq ptr %.us-phi, null
  br i1 %.not11, label %33, label %32

32:                                               ; preds = %.split13.us
  tail call void @_ZN13PlatformEvent6unparkEv(ptr noundef nonnull align 8 dereferenceable(144) %.us-phi) #9
  br label %33

33:                                               ; preds = %.split13.us.thread, %.split13.us, %32, %8
  ret void
}